; Function Attrs: mustprogress uwtable
define internal void @_ZN32pxrInternal_v0_24__pxrReserved__L22_Tf_RegistryFunction27EPNS_6TfEnumEPv(ptr nocapture readnone %0, ptr nocapture readnone %1) #1 {
  tail call void @_ZN32pxrInternal_v0_24__pxrReserved__6TfEnum8_AddNameES0_PKcS2_(ptr nonnull @_ZTIN32pxrInternal_v0_24__pxrReserved__14UsdGeomXformOp4TypeE, i32 0, ptr noundef nonnull @.str.28, ptr noundef nonnull @.str.20)
  tail call void @_ZN32pxrInternal_v0_24__pxrReserved__6TfEnum8_AddNameES0_PKcS2_(ptr nonnull @_ZTIN32pxrInternal_v0_24__pxrReserved__14UsdGeomXformOp4TypeE, i32 1, ptr noundef nonnull @.str.29, ptr noundef nonnull @.str)
  tail call void @_ZN32pxrInternal_v0_24__pxrReserved__6TfEnum8_AddNameES0_PKcS2_(ptr nonnull @_ZTIN32pxrInternal_v0_24__pxrReserved__14UsdGeomXformOp4TypeE, i32 2, ptr noundef nonnull @.str.30, ptr noundef nonnull @.str.1)
  tail call void @_ZN32pxrInternal_v0_24__pxrReserved__6TfEnum8_AddNameES0_PKcS2_(ptr nonnull @_ZTIN32pxrInternal_v0_24__pxrReserved__14UsdGeomXformOp4TypeE, i32 3, ptr noundef nonnull @.str.31, ptr noundef nonnull @.str.2)
  tail call void @_ZN32pxrInternal_v0_24__pxrReserved__6TfEnum8_AddNameES0_PKcS2_(ptr nonnull @_ZTIN32pxrInternal_v0_24__pxrReserved__14UsdGeomXformOp4TypeE, i32 4, ptr noundef nonnull @.str.32, ptr noundef nonnull @.str.3)
  tail call void @_ZN32pxrInternal_v0_24__pxrReserved__6TfEnum8_AddNameES0_PKcS2_(ptr nonnull @_ZTIN32pxrInternal_v0_24__pxrReserved__14UsdGeomXformOp4TypeE, i32 5, ptr noundef nonnull @.str.33, ptr noundef nonnull @.str.4)
  tail call void @_ZN32pxrInternal_v0_24__pxrReserved__6TfEnum8_AddNameES0_PKcS2_(ptr nonnull @_ZTIN32pxrInternal_v0_24__pxrReserved__14UsdGeomXformOp4TypeE, i32 6, ptr noundef nonnull @.str.34, ptr noundef nonnull @.str.5)
  tail call void @_ZN32pxrInternal_v0_24__pxrReserved__6TfEnum8_AddNameES0_PKcS2_(ptr nonnull @_ZTIN32pxrInternal_v0_24__pxrReserved__14UsdGeomXformOp4TypeE, i32 7, ptr noundef nonnull @.str.35, ptr noundef nonnull @.str.6)
  tail call void @_ZN32pxrInternal_v0_24__pxrReserved__6TfEnum8_AddNameES0_PKcS2_(ptr nonnull @_ZTIN32pxrInternal_v0_24__pxrReserved__14UsdGeomXformOp4TypeE, i32 8, ptr noundef nonnull @.str.36, ptr noundef nonnull @.str.7)
  tail call void @_ZN32pxrInternal_v0_24__pxrReserved__6TfEnum8_AddNameES0_PKcS2_(ptr nonnull @_ZTIN32pxrInternal_v0_24__pxrReserved__14UsdGeomXformOp4TypeE, i32 9, ptr noundef nonnull @.str.37, ptr noundef nonnull @.str.8)
  tail call void @_ZN32pxrInternal_v0_24__pxrReserved__6TfEnum8_AddNameES0_PKcS2_(ptr nonnull @_ZTIN32pxrInternal_v0_24__pxrReserved__14UsdGeomXformOp4TypeE, i32 10, ptr noundef nonnull @.str.38, ptr noundef nonnull @.str.9)
  tail call void @_ZN32pxrInternal_v0_24__pxrReserved__6TfEnum8_AddNameES0_PKcS2_(ptr nonnull @_ZTIN32pxrInternal_v0_24__pxrReserved__14UsdGeomXformOp4TypeE, i32 11, ptr noundef nonnull @.str.39, ptr noundef nonnull @.str.10)
  tail call void @_ZN32pxrInternal_v0_24__pxrReserved__6TfEnum8_AddNameES0_PKcS2_(ptr nonnull @_ZTIN32pxrInternal_v0_24__pxrReserved__14UsdGeomXformOp4TypeE, i32 12, ptr noundef nonnull @.str.40, ptr noundef nonnull @.str.11)
  tail call void @_ZN32pxrInternal_v0_24__pxrReserved__6TfEnum8_AddNameES0_PKcS2_(ptr nonnull @_ZTIN32pxrInternal_v0_24__pxrReserved__14UsdGeomXformOp4TypeE, i32 13, ptr noundef nonnull @.str.41, ptr noundef nonnull @.str.12)
  tail call void @_ZN32pxrInternal_v0_24__pxrReserved__6TfEnum8_AddNameES0_PKcS2_(ptr nonnull @_ZTIN32pxrInternal_v0_24__pxrReserved__14UsdGeomXformOp9PrecisionE, i32 0, ptr noundef nonnull @.str.42, ptr noundef nonnull @.str.43)
  tail call void @_ZN32pxrInternal_v0_24__pxrReserved__6TfEnum8_AddNameES0_PKcS2_(ptr nonnull @_ZTIN32pxrInternal_v0_24__pxrReserved__14UsdGeomXformOp9PrecisionE, i32 1, ptr noundef nonnull @.str.44, ptr noundef nonnull @.str.45)
  tail call void @_ZN32pxrInternal_v0_24__pxrReserved__6TfEnum8_AddNameES0_PKcS2_(ptr nonnull @_ZTIN32pxrInternal_v0_24__pxrReserved__14UsdGeomXformOp9PrecisionE, i32 2, ptr noundef nonnull @.str.46, ptr noundef nonnull @.str.47)
  ret void
}